; Function Attrs: mustprogress uwtable
define hidden void @_ZNK6Assimp7Blender9Structure7ConvertINS0_6CameraEEEvRT_RKNS0_12FileDatabaseE(ptr noundef nonnull align 8 dereferenceable(120) %0, ptr noundef nonnull align 8 dereferenceable(1088) %1, ptr noundef nonnull align 8 dereferenceable(232) %2) local_unnamed_addr #0 align 2 personality ptr @__gxx_personality_v0 {
  %4 = alloca i32, align 4
  %5 = getelementptr inbounds nuw i8, ptr %1, i64 16
  tail call void @_ZNK6Assimp7Blender9Structure9ReadFieldILi2ENS0_2IDEEEvRT0_PKcRKNS0_12FileDatabaseE(ptr noundef nonnull align 8 dereferenceable(120) %0, ptr noundef nonnull align 8 dereferenceable(1042) %5, ptr noundef nonnull @.str, ptr noundef nonnull align 8 dereferenceable(232) %2)
  call void @llvm.lifetime.start.p0(i64 4, ptr nonnull %4) #23
  store i32 0, ptr %4, align 4
  call void @_ZNK6Assimp7Blender9Structure9ReadFieldILi1EiEEvRT0_PKcRKNS0_12FileDatabaseE(ptr noundef nonnull align 8 dereferenceable(120) %0, ptr noundef nonnull align 4 dereferenceable(4) %4, ptr noundef nonnull @.str.1, ptr noundef nonnull align 8 dereferenceable(232) %2)
  %6 = load i32, ptr %4, align 4
  %7 = getelementptr inbounds nuw i8, ptr %1, i64 1064
  store i32 %6, ptr %7, align 8
  call void @_ZNK6Assimp7Blender9Structure9ReadFieldILi1EiEEvRT0_PKcRKNS0_12FileDatabaseE(ptr noundef nonnull align 8 dereferenceable(120) %0, ptr noundef nonnull align 4 dereferenceable(4) %4, ptr noundef nonnull @.str.51, ptr noundef nonnull align 8 dereferenceable(232) %2)
  %8 = load i32, ptr %4, align 4
  %9 = getelementptr inbounds nuw i8, ptr %1, i64 1068
  store i32 %8, ptr %9, align 4
  %10 = getelementptr inbounds nuw i8, ptr %1, i64 1072
  call void @_ZNK6Assimp7Blender9Structure9ReadFieldILi1EfEEvRT0_PKcRKNS0_12FileDatabaseE(ptr noundef nonnull align 8 dereferenceable(120) %0, ptr noundef nonnull align 4 dereferenceable(4) %10, ptr noundef nonnull @.str.234, ptr noundef nonnull align 8 dereferenceable(232) %2)
  %11 = getelementptr inbounds nuw i8, ptr %1, i64 1076
  call void @_ZNK6Assimp7Blender9Structure9ReadFieldILi1EfEEvRT0_PKcRKNS0_12FileDatabaseE(ptr noundef nonnull align 8 dereferenceable(120) %0, ptr noundef nonnull align 4 dereferenceable(4) %11, ptr noundef nonnull @.str.235, ptr noundef nonnull align 8 dereferenceable(232) %2)
  %12 = getelementptr inbounds nuw i8, ptr %1, i64 1080
  call void @_ZNK6Assimp7Blender9Structure9ReadFieldILi0EfEEvRT0_PKcRKNS0_12FileDatabaseE(ptr noundef nonnull align 8 dereferenceable(120) %0, ptr noundef nonnull align 4 dereferenceable(4) %12, ptr noundef nonnull @.str.236, ptr noundef nonnull align 8 dereferenceable(232) %2)
  %13 = getelementptr inbounds nuw i8, ptr %1, i64 1084
  call void @_ZNK6Assimp7Blender9Structure9ReadFieldILi0EfEEvRT0_PKcRKNS0_12FileDatabaseE(ptr noundef nonnull align 8 dereferenceable(120) %0, ptr noundef nonnull align 4 dereferenceable(4) %13, ptr noundef nonnull @.str.237, ptr noundef nonnull align 8 dereferenceable(232) %2)
  %14 = getelementptr inbounds nuw i8, ptr %2, i64 128
  %15 = load ptr, ptr %14, align 8
  %16 = getelementptr inbounds nuw i8, ptr %0, i64 104
  %17 = load i64, ptr %16, align 8
  %18 = getelementptr inbounds nuw i8, ptr %15, i64 24
  %19 = load ptr, ptr %18, align 8
  %20 = getelementptr inbounds i8, ptr %19, i64 %17
  store ptr %20, ptr %18, align 8
  %21 = getelementptr inbounds nuw i8, ptr %15, i64 40
  %22 = load ptr, ptr %21, align 8
  %23 = icmp ugt ptr %20, %22
  br i1 %23, label %24, label %_ZN6Assimp12StreamReaderILb1ELb1EE6IncPtrEl.exit

24:                                               ; preds = %3
  %25 = call ptr @__cxa_allocate_exception(i64 16) #23
  invoke void @_ZN17DeadlyImportErrorC2EPKc(ptr noundef nonnull align 8 dereferenceable(16) %25, ptr noundef nonnull @.str.307)
          to label %26 unwind label %27

26:                                               ; preds = %24
  call void @__cxa_throw(ptr nonnull %25, ptr nonnull @_ZTI17DeadlyImportError, ptr nonnull @_ZNSt13runtime_errorD2Ev) #24
  unreachable

27:                                               ; preds = %24
  %28 = landingpad { ptr, i32 }
          cleanup
  call void @__cxa_free_exception(ptr nonnull %25) #23
  resume { ptr, i32 } %28

_ZN6Assimp12StreamReaderILb1ELb1EE6IncPtrEl.exit: ; preds = %3
  call void @llvm.lifetime.end.p0(i64 4, ptr nonnull %4) #23
  ret void
}